target datalayout = "e-m:e-p270:32:32-p271:32:32-p272:64:64-i64:64-i128:128-f80:128-n8:16:32:64-S128"
target triple = "x86_64-pc-linux-gnu"

%struct.AVSubtitle = type { i16, i32, i32, i32, ptr, i64 }
%struct.AVSubtitleRect = type { i32, i32, i32, i32, i32, [4 x ptr], [4 x i32], i32, i32, ptr, ptr }

; Function Attrs: nounwind uwtable
define void @avsubtitle_free(ptr noundef %0) #0 {
  %2 = alloca ptr, align 8
  %3 = alloca i32, align 4
  %4 = alloca ptr, align 8
  store ptr %0, ptr %2, align 8, !tbaa !113
  call void @llvm.lifetime.start.p0(i64 4, ptr %3) #13
  store i32 0, ptr %3, align 4, !tbaa !12
  br label %5

5:                                                ; preds = %41, %1
  %6 = load i32, ptr %3, align 4, !tbaa !12
  %7 = load ptr, ptr %2, align 8, !tbaa !113
  %8 = getelementptr inbounds nuw %struct.AVSubtitle, ptr %7, i32 0, i32 3
  %9 = load i32, ptr %8, align 4, !tbaa !115
  %10 = icmp ult i32 %6, %9
  br i1 %10, label %11, label %44

11:                                               ; preds = %5
  call void @llvm.lifetime.start.p0(i64 8, ptr %4) #13
  %12 = load ptr, ptr %2, align 8, !tbaa !113
  %13 = getelementptr inbounds nuw %struct.AVSubtitle, ptr %12, i32 0, i32 4
  %14 = load ptr, ptr %13, align 8, !tbaa !119
  %15 = load i32, ptr %3, align 4, !tbaa !12
  %16 = sext i32 %15 to i64
  %17 = getelementptr inbounds ptr, ptr %14, i64 %16
  %18 = load ptr, ptr %17, align 8, !tbaa !120
  store ptr %18, ptr %4, align 8, !tbaa !120
  %19 = load ptr, ptr %4, align 8, !tbaa !120
  %20 = getelementptr inbounds nuw %struct.AVSubtitleRect, ptr %19, i32 0, i32 5
  %21 = getelementptr inbounds [4 x ptr], ptr %20, i64 0, i64 0
  call void @av_freep(ptr noundef %21)
  %22 = load ptr, ptr %4, align 8, !tbaa !120
  %23 = getelementptr inbounds nuw %struct.AVSubtitleRect, ptr %22, i32 0, i32 5
  %24 = getelementptr inbounds [4 x ptr], ptr %23, i64 0, i64 1
  call void @av_freep(ptr noundef %24)
  %25 = load ptr, ptr %4, align 8, !tbaa !120
  %26 = getelementptr inbounds nuw %struct.AVSubtitleRect, ptr %25, i32 0, i32 5
  %27 = getelementptr inbounds [4 x ptr], ptr %26, i64 0, i64 2
  call void @av_freep(ptr noundef %27)
  %28 = load ptr, ptr %4, align 8, !tbaa !120
  %29 = getelementptr inbounds nuw %struct.AVSubtitleRect, ptr %28, i32 0, i32 5
  %30 = getelementptr inbounds [4 x ptr], ptr %29, i64 0, i64 3
  call void @av_freep(ptr noundef %30)
  %31 = load ptr, ptr %4, align 8, !tbaa !120
  %32 = getelementptr inbounds nuw %struct.AVSubtitleRect, ptr %31, i32 0, i32 9
  call void @av_freep(ptr noundef %32)
  %33 = load ptr, ptr %4, align 8, !tbaa !120
  %34 = getelementptr inbounds nuw %struct.AVSubtitleRect, ptr %33, i32 0, i32 10
  call void @av_freep(ptr noundef %34)
  %35 = load ptr, ptr %2, align 8, !tbaa !113
  %36 = getelementptr inbounds nuw %struct.AVSubtitle, ptr %35, i32 0, i32 4
  %37 = load ptr, ptr %36, align 8, !tbaa !119
  %38 = load i32, ptr %3, align 4, !tbaa !12
  %39 = sext i32 %38 to i64
  %40 = getelementptr inbounds ptr, ptr %37, i64 %39
  call void @av_freep(ptr noundef %40)
  call void @llvm.lifetime.end.p0(i64 8, ptr %4) #13
  br label %41

41:                                               ; preds = %11
  %42 = load i32, ptr %3, align 4, !tbaa !12
  %43 = add nsw i32 %42, 1
  store i32 %43, ptr %3, align 4, !tbaa !12
  br label %5, !llvm.loop !122

44:                                               ; preds = %5
  %45 = load ptr, ptr %2, align 8, !tbaa !113
  %46 = getelementptr inbounds nuw %struct.AVSubtitle, ptr %45, i32 0, i32 4
  call void @av_freep(ptr noundef %46)
  %47 = load ptr, ptr %2, align 8, !tbaa !113
  call void @llvm.memset.p0.i64(ptr align 8 %47, i8 0, i64 32, i1 false)
  call void @llvm.lifetime.end.p0(i64 4, ptr %3) #13
  ret void
}