; Function Attrs: nounwind uwtable
define void @avsubtitle_free(ptr noundef %0) local_unnamed_addr #0 {
  %2 = getelementptr inbounds nuw i8, ptr %0, i64 12
  %3 = load i32, ptr %2, align 4, !tbaa !96
  %.not = icmp eq i32 %3, 0
  br i1 %.not, label %._crit_edge, label %.lr.ph

.lr.ph:                                           ; preds = %1
  %4 = getelementptr inbounds nuw i8, ptr %0, i64 16
  br label %5

5:                                                ; preds = %.lr.ph, %5
  %indvars.iv = phi i64 [ 0, %.lr.ph ], [ %indvars.iv.next, %5 ]
  %6 = load ptr, ptr %4, align 8, !tbaa !100
  %7 = getelementptr inbounds nuw ptr, ptr %6, i64 %indvars.iv
  %8 = load ptr, ptr %7, align 8, !tbaa !101
  %9 = getelementptr inbounds nuw i8, ptr %8, i64 24
  tail call void @av_freep(ptr noundef nonnull %9) #12
  %10 = getelementptr inbounds nuw i8, ptr %8, i64 32
  tail call void @av_freep(ptr noundef nonnull %10) #12
  %11 = getelementptr inbounds nuw i8, ptr %8, i64 40
  tail call void @av_freep(ptr noundef nonnull %11) #12
  %12 = getelementptr inbounds nuw i8, ptr %8, i64 48
  tail call void @av_freep(ptr noundef nonnull %12) #12
  %13 = getelementptr inbounds nuw i8, ptr %8, i64 80
  tail call void @av_freep(ptr noundef nonnull %13) #12
  %14 = getelementptr inbounds nuw i8, ptr %8, i64 88
  tail call void @av_freep(ptr noundef nonnull %14) #12
  %15 = load ptr, ptr %4, align 8, !tbaa !100
  %16 = getelementptr inbounds nuw ptr, ptr %15, i64 %indvars.iv
  tail call void @av_freep(ptr noundef %16) #12
  %indvars.iv.next = add nuw nsw i64 %indvars.iv, 1
  %17 = load i32, ptr %2, align 4, !tbaa !96
  %18 = zext i32 %17 to i64
  %19 = icmp samesign ult i64 %indvars.iv.next, %18
  br i1 %19, label %5, label %._crit_edge, !llvm.loop !103

._crit_edge:                                      ; preds = %5, %1
  %20 = getelementptr inbounds nuw i8, ptr %0, i64 16
  tail call void @av_freep(ptr noundef nonnull %20) #12
  tail call void @llvm.memset.p0.i64(ptr noundef nonnull align 8 dereferenceable(32) %0, i8 0, i64 32, i1 false)
  ret void
}